(lp0
Vhttps://img.shopstyle-cdn.com/pim/8a/35/8a35c058062b28b45ccb16f7faaa0005_best.jpg
p1
aVhttps://img.shopstyle-cdn.com/pim/ca/3b/ca3b5cd925b269cbef89b83c6d12112f_best.jpg
p2
aVhttps://img.shopstyle-cdn.com/pim/e2/95/e29534fd828ea7520020a0b7ae065895_best.jpg
p3
aVhttps://img.shopstyle-cdn.com/pim/7c/b2/7cb2e22779ce43364eb31ff369330e4d_best.jpg
p4
aVhttps://img.shopstyle-cdn.com/pim/9b/c1/9bc1e32c89f36ad65bce769d744bf08d_best.jpg
p5
aVhttps://img.shopstyle-cdn.com/pim/9b/ff/9bff0eb7fde20ca6301904b36d904085_best.jpg
p6
aVhttps://img.shopstyle-cdn.com/pim/ea/42/ea42b4bdb002826510b79c85bf6915ed_best.jpg
p7
aVhttps://img.shopstyle-cdn.com/pim/4f/43/4f43137b2c923c2cbb3b6db553a985d9_best.jpg
p8
aVhttps://img.shopstyle-cdn.com/pim/4b/50/4b50f0e0a73229f00a42b653f63e41d8_best.jpg
p9
aVhttps://img.shopstyle-cdn.com/pim/3b/97/3b970c1d62b7e38230265147d2f83293_best.jpg
p10
aVhttps://img.shopstyle-cdn.com/pim/d0/d1/d0d131a17bd802ec80102fe9fb4a327e_best.jpg
p11
aVhttps://img.shopstyle-cdn.com/pim/bd/28/bd286a5104dd8514bf9e2b392d241f9a_best.jpg
p12
aVhttps://img.shopstyle-cdn.com/pim/1a/48/1a48a2ef996803aab9d1021272e8e211_best.jpg
p13
aVhttps://img.shopstyle-cdn.com/pim/36/f1/36f17e9520e849b7de979efb047806ab_best.jpg
p14
aVhttps://img.shopstyle-cdn.com/pim/26/e3/26e3d42869f6da17471e0bce8272681e_best.jpg
p15
aVhttps://img.shopstyle-cdn.com/pim/e8/1f/e81f22f9a227c66679c63a16eae7c4e9_best.jpg
p16
aVhttps://img.shopstyle-cdn.com/pim/07/01/0701e3615198c7ff7b84814e7adda8ac_best.jpg
p17
aVhttps://img.shopstyle-cdn.com/pim/2b/10/2b10924017822f77ee70270e0507bf90_best.jpg
p18
aVhttps://img.shopstyle-cdn.com/pim/14/5f/145f9e5302000d8f5cb815543a02526d_best.jpg
p19
aVhttps://img.shopstyle-cdn.com/pim/f1/47/f147bd68741e6da815a7b190f1e62f81_best.jpg
p20
aVhttps://img.shopstyle-cdn.com/pim/bf/1a/bf1ae4982991d30390059998847bf038_best.jpg
p21
aVhttps://img.shopstyle-cdn.com/pim/93/92/93922b24fa9a5217650f93b26d50edee_best.jpg
p22
aVhttps://img.shopstyle-cdn.com/pim/ec/4e/ec4ee1dc90cecd807a7be57717394d54_best.jpg
p23
aVhttps://img.shopstyle-cdn.com/pim/47/1f/471f6cdf2eebbeaf9e79692f7ab3f146_best.jpg
p24
aVhttps://img.shopstyle-cdn.com/pim/0a/43/0a43e1b3ca6d10c5c401ab8439dfb7c4_best.jpg
p25
aVhttps://img.shopstyle-cdn.com/pim/dd/b0/ddb06518e0f724d1a53272d669853550_best.jpg
p26
aVhttps://img.shopstyle-cdn.com/pim/8c/c3/8cc3ed53f38fbcea29538f4629a9e7f8_best.jpg
p27
aVhttps://img.shopstyle-cdn.com/pim/99/03/9903010f0d1fd8cdce31009051fb74cb_best.jpg
p28
aVhttps://img.shopstyle-cdn.com/pim/58/2a/582aa9ab86a1d1f37a4da7525d4466ab_best.jpg
p29
aVhttps://img.shopstyle-cdn.com/pim/bd/39/bd39f368f26b4801111e17b83863d07e_best.jpg
p30
aVhttps://img.shopstyle-cdn.com/pim/d6/0c/d60c4a500554998d2b195d1bbe3c0378_best.jpg
p31
aVhttps://img.shopstyle-cdn.com/pim/b7/7c/b77c607f0f922a386e971b8d1c5593c2_best.jpg
p32
aVhttps://img.shopstyle-cdn.com/pim/fd/6d/fd6d33f61c42d364b051033092267f93_best.jpg
p33
aVhttps://img.shopstyle-cdn.com/pim/fc/51/fc510492ca516cce885fdccd80fcf80d_best.jpg
p34
aVhttps://img.shopstyle-cdn.com/pim/3d/c3/3dc33f2ecc1ec8b8a1e9f598cf782e81_best.jpg
p35
aVhttps://img.shopstyle-cdn.com/pim/92/ac/92ac56d7d048d86a71f8599d7949427d_best.jpg
p36
aVhttps://img.shopstyle-cdn.com/pim/cb/bc/cbbcd78e17f0c84c3a4cff99a770bc98_best.jpg
p37
aVhttps://img.shopstyle-cdn.com/pim/e3/66/e366ba4570a4f007829551a78bbf86a5_best.jpg
p38
aVhttps://img.shopstyle-cdn.com/pim/39/e9/39e99c57076f07058a84c507a235e3c2_best.jpg
p39
aVhttps://img.shopstyle-cdn.com/pim/ce/c9/cec9d40db22ccff31ee94bee42c61980_best.jpg
p40
aVhttps://img.shopstyle-cdn.com/pim/2e/7d/2e7d7ed86cc15af8852442c8e15cbf3a_best.jpg
p41
aVhttps://img.shopstyle-cdn.com/pim/c2/a8/c2a8d32b584d04d07c41540d47b7249c_best.jpg
p42
aVhttps://img.shopstyle-cdn.com/pim/7a/89/7a893f92a690478ce9a5240b34098b53_best.jpg
p43
aVhttps://img.shopstyle-cdn.com/pim/1d/c5/1dc5743bfdd3520c37d769ef1faec415_best.jpg
p44
aVhttps://img.shopstyle-cdn.com/pim/b4/e8/b4e84805603be3cea56b3053ced6957c_best.jpg
p45
aVhttps://img.shopstyle-cdn.com/pim/d7/16/d716fcd3ad216758db2f0f7d38fd553d_best.jpg
p46
aVhttps://img.shopstyle-cdn.com/pim/26/0e/260e05dc846cb44a5fd2027feb7e8e88_best.jpg
p47
aVhttps://img.shopstyle-cdn.com/pim/a9/8b/a98b98549c508da9a3c429aef96f6d65_best.jpg
p48
aVhttps://img.shopstyle-cdn.com/pim/3a/89/3a89ccc6420d461cbb1374a79c3675cb_best.jpg
p49
aVhttps://img.shopstyle-cdn.com/pim/fb/8b/fb8b3ec3137bc793acf958220bfec8ae_best.jpg
p50
aVhttps://img.shopstyle-cdn.com/pim/93/bf/93bfcfa3de0e128a2e55c7e1acfec882_best.jpg
p51
aVhttps://img.shopstyle-cdn.com/pim/5d/be/5dbefa3604a4941e3dcad19c3a4a7eb2_best.jpg
p52
aVhttps://img.shopstyle-cdn.com/pim/e1/48/e148846ab450101b19b95ad0f606ecd6_best.jpg
p53
aVhttps://img.shopstyle-cdn.com/pim/99/7b/997b47532acfbef7ab1e0ddabeef453a_best.jpg
p54
aVhttps://img.shopstyle-cdn.com/pim/a3/19/a3196a6c7cabfbc63ada11f174b89566_best.jpg
p55
aVhttps://img.shopstyle-cdn.com/pim/ca/d0/cad00dc0a3bd94eda35c876addf96de0_best.jpg
p56
aVhttps://img.shopstyle-cdn.com/pim/9b/57/9b5728f5eb711f752c6f5cd77ac2c7c1_best.jpg
p57
aVhttps://img.shopstyle-cdn.com/pim/8b/d3/8bd31b710e930449bf9ec2960e15be17_best.jpg
p58
aVhttps://img.shopstyle-cdn.com/pim/90/d5/90d5fce84d12092f6f74b23c405b8ad9_best.jpg
p59
aVhttps://img.shopstyle-cdn.com/pim/50/f1/50f12d49fc0000d73bad1472330a758b_best.jpg
p60
aVhttps://img.shopstyle-cdn.com/pim/2c/74/2c74c0211b1e100c1622782928316a52_best.jpg
p61
aVhttps://img.shopstyle-cdn.com/pim/25/a3/25a3e8bcf5c36cf4ef26069d4f5e855c_best.jpg
p62
aVhttps://img.shopstyle-cdn.com/pim/10/7f/107f2b412100f0b7c432efb2b22e0db4_best.jpg
p63
aVhttps://img.shopstyle-cdn.com/pim/63/83/63838d859a4abf62876d817115ed92bd_best.jpg
p64
aVhttps://img.shopstyle-cdn.com/pim/d3/1d/d31d2c430562bb2a09e9f9028784a9fa_best.jpg
p65
aVhttps://img.shopstyle-cdn.com/pim/01/f8/01f87ede704be7c8cca22ad1729c188c_best.jpg
p66
aVhttps://img.shopstyle-cdn.com/pim/2d/91/2d912f549db637e18e9743a9df72ca48_best.jpg
p67
aVhttps://img.shopstyle-cdn.com/pim/97/51/9751a8f3947b3cae0e70edba448cdb18_best.jpg
p68
aVhttps://img.shopstyle-cdn.com/pim/b8/61/b86139aa800fc5cb2bfe15575094ee6e_best.jpg
p69
aVhttps://img.shopstyle-cdn.com/pim/71/a7/71a70f25bda1561ab44d714ea2a7b4cf_best.jpg
p70
aVhttps://img.shopstyle-cdn.com/pim/6e/60/6e60ccf79f8bdcc365a11c1c94af9a1a_best.jpg
p71
aVhttps://img.shopstyle-cdn.com/pim/9e/f0/9ef0631e9f1645ce9026d1236bcc9a88_best.jpg
p72
aVhttps://img.shopstyle-cdn.com/pim/19/3a/193a50cc39300c52247bbed244409a92_best.jpg
p73
aVhttps://img.shopstyle-cdn.com/pim/b1/97/b19705db8739b3ef904c946cd42ef3ad_best.jpg
p74
aVhttps://img.shopstyle-cdn.com/pim/ea/e1/eae1e6dfccf615098b178cf2d254201b_best.jpg
p75
aVhttps://img.shopstyle-cdn.com/pim/a4/54/a454b8c441ce48e325df6d5666ec7d66_best.jpg
p76
aVhttps://img.shopstyle-cdn.com/pim/0c/a8/0ca8effe660268c471d8a84f0b5bc1ba_best.jpg
p77
aVhttps://img.shopstyle-cdn.com/pim/d8/d2/d8d20d87b861ee6a374b1715152f8b7c_best.jpg
p78
aVhttps://img.shopstyle-cdn.com/pim/bd/78/bd78041c334634a2befb7d00cb8f2f77_best.jpg
p79
aVhttps://img.shopstyle-cdn.com/pim/39/ab/39ab2cd224d47389aec65ef84fd2929d_best.jpg
p80
aVhttps://img.shopstyle-cdn.com/pim/5c/8d/5c8df82babca2445b85056eb979f9213_best.jpg
p81
aVhttps://img.shopstyle-cdn.com/pim/c4/2a/c42a770a679e535d6f0f78ae4e5bc89d_best.jpg
p82
aVhttps://img.shopstyle-cdn.com/pim/5f/06/5f06a3dfb582ac6e45d70ad95924c5b3_best.jpg
p83
aVhttps://img.shopstyle-cdn.com/pim/84/1f/841f89a6c15caf47af041b17d5fa0b3a_best.jpg
p84
aVhttps://img.shopstyle-cdn.com/pim/16/29/16293000ef9cad8b94cea79366545a97_best.jpg
p85
aVhttps://img.shopstyle-cdn.com/pim/0e/b7/0eb704b1e868120f5bb3707bf1fd0de1_best.jpg
p86
aVhttps://img.shopstyle-cdn.com/pim/ae/a1/aea1a083b075be40c9cb7b37cffb4cd2_best.jpg
p87
aVhttps://img.shopstyle-cdn.com/pim/f5/b7/f5b71cad1c7b064258950c62d089b784_best.jpg
p88
aVhttps://img.shopstyle-cdn.com/pim/4b/6a/4b6a70c52963cada90e8ac681e139d27_best.jpg
p89
aVhttps://img.shopstyle-cdn.com/pim/41/7d/417d08f0ea3410b214d6efc95c4314e5_best.jpg
p90
aVhttps://img.shopstyle-cdn.com/pim/fc/21/fc212368d1499f6af897cb07ea7c52e7_best.jpg
p91
aVhttps://img.shopstyle-cdn.com/pim/8c/e9/8ce933b76bc595d376d7cd66a898bfc7_best.jpg
p92
aVhttps://img.shopstyle-cdn.com/pim/fb/bc/fbbc374a4de341e4b0280cc1a1092991_best.jpg
p93
aVhttps://img.shopstyle-cdn.com/pim/7c/38/7c383784b7ddae53bb62b25030ec68d4_best.jpg
p94
aVhttps://img.shopstyle-cdn.com/pim/d4/b7/d4b7435e4e93f8d44515f3a8f48960df_best.jpg
p95
aVhttps://img.shopstyle-cdn.com/pim/2a/c6/2ac6a9fdd5787810edfbadcac3a7c83c_best.jpg
p96
aVhttps://img.shopstyle-cdn.com/pim/80/07/8007606df58eae73aa08cd751e6a505e_best.jpg
p97
aVhttps://img.shopstyle-cdn.com/pim/36/2d/362dc697fb19404410bb1e75e9b24c2a_best.jpg
p98
aVhttps://img.shopstyle-cdn.com/pim/02/4a/024a21df2e32eb360938031a10af9c65_best.jpg
p99
aVhttps://img.shopstyle-cdn.com/pim/ca/60/ca605b492a952cfd39b1eacc72708e33_best.jpg
p100
aVhttps://img.shopstyle-cdn.com/pim/a6/79/a679e3f73ca6a8f44b2b4df47e549590_best.jpg
p101
aVhttps://img.shopstyle-cdn.com/pim/64/0e/640ec5b2066132468daade8390af5f6a_best.jpg
p102
aVhttps://img.shopstyle-cdn.com/pim/ae/fc/aefc70fc47a6eac446c3ac3456125f93_best.jpg
p103
aVhttps://img.shopstyle-cdn.com/pim/f3/8a/f38abe51c17fe8a79f97ac4c077b2e24_best.jpg
p104
aVhttps://img.shopstyle-cdn.com/pim/08/c3/08c33c3ab720a7f79a6ea2477bf6ae84_best.jpg
p105
aVhttps://img.shopstyle-cdn.com/pim/d8/59/d85990225ea845ea89f5bbb8b9c2e41b_best.jpg
p106
aVhttps://img.shopstyle-cdn.com/pim/af/a9/afa96e5a8e8e9b8dd230ad6fd9b5137c_best.jpg
p107
aVhttps://img.shopstyle-cdn.com/pim/41/50/415087e5f84d7346072f818cbe7e9300_best.jpg
p108
aVhttps://img.shopstyle-cdn.com/pim/ae/e9/aee9ac786275db1602da8307fb314da8_best.jpg
p109
aVhttps://img.shopstyle-cdn.com/pim/6a/8f/6a8fd178cb7f383463cfa931916c0b75_best.jpg
p110
aVhttps://img.shopstyle-cdn.com/pim/a0/03/a00362e7b90fc72343d79422322ba326_best.jpg
p111
aVhttps://img.shopstyle-cdn.com/pim/15/d9/15d93dcd67f3cfa4f8db34e1741b8d3f_best.jpg
p112
aVhttps://img.shopstyle-cdn.com/pim/8e/c2/8ec2288d4c47706ca35600dd865296eb_best.jpg
p113
aVhttps://img.shopstyle-cdn.com/pim/9c/0a/9c0a071ce9bbb56d89f6dacc5e54e60d_best.jpg
p114
aVhttps://img.shopstyle-cdn.com/pim/6a/2e/6a2e43311e73651d8ecdc85f31bb3e6f_best.jpg
p115
aVhttps://img.shopstyle-cdn.com/pim/aa/5e/aa5e52ce884d5d5e51e5d3911e9648b5_best.jpg
p116
aVhttps://img.shopstyle-cdn.com/pim/e6/cb/e6cbbfff7fa4d239065824e6071b5ec2_best.jpg
p117
aVhttps://img.shopstyle-cdn.com/pim/69/ce/69cede16e0337886153c6920ba83e182_best.jpg
p118
aVhttps://img.shopstyle-cdn.com/pim/d3/03/d3038a957dfabcb4b36218b076bf37f0_best.jpg
p119
aVhttps://img.shopstyle-cdn.com/pim/d1/18/d11878871b65db616def70b810a4d119_best.jpg
p120
aVhttps://img.shopstyle-cdn.com/pim/68/46/68466ede2d3a2ab1203b2112c4d17465_best.jpg
p121
aVhttps://img.shopstyle-cdn.com/pim/fa/66/fa66dd5b75d9ae9543a32c80fc5db72e_best.jpg
p122
aVhttps://img.shopstyle-cdn.com/pim/11/6e/116e8265d125797879a4ecbcc6863d00_best.jpg
p123
aVhttps://img.shopstyle-cdn.com/pim/bb/a0/bba0ba0746a0c44240d9f9e2c2a9195c_best.jpg
p124
aVhttps://img.shopstyle-cdn.com/pim/69/24/6924aa309811401d250395d41721f031_best.jpg
p125
aVhttps://img.shopstyle-cdn.com/pim/2d/93/2d93a3599fbf69e3a52da214fdb16033_best.jpg
p126
aVhttps://img.shopstyle-cdn.com/pim/bf/1c/bf1c530ebcd0c9832f5c542ffc914976_best.jpg
p127
aVhttps://img.shopstyle-cdn.com/pim/e1/7b/e17b4480203bd544bc7f358739d5bf5f_best.jpg
p128
aVhttps://img.shopstyle-cdn.com/pim/57/7f/577fc46c66640bdce2b99147e48c42eb_best.jpg
p129
aVhttps://img.shopstyle-cdn.com/pim/b1/53/b1538c9762df40e7f2fb3ce07ef0a8be_best.jpg
p130
aVhttps://img.shopstyle-cdn.com/pim/a4/c1/a4c106eb97ea181e5486c12ed4cf8b2e_best.jpg
p131
aVhttps://img.shopstyle-cdn.com/pim/67/9b/679b59f1e215a962e9ba1a6d85f48ce3_best.jpg
p132
aVhttps://img.shopstyle-cdn.com/pim/d8/39/d8396d40236534c14f72efc331be56a1_best.jpg
p133
aVhttps://img.shopstyle-cdn.com/pim/fd/c3/fdc3064218e7cfe915776979063886d9_best.jpg
p134
aVhttps://img.shopstyle-cdn.com/pim/5e/ee/5eee4dfd218f204f519da27af13dd1e0_best.jpg
p135
aVhttps://img.shopstyle-cdn.com/pim/3b/7e/3b7ee19afe8796bc196fb5b5e46fc364_best.jpg
p136
aVhttps://img.shopstyle-cdn.com/pim/e9/b3/e9b3a42eb0f90c526ca1b25457f865c6_best.jpg
p137
aVhttps://img.shopstyle-cdn.com/pim/15/a1/15a18f9846111a56fcbae3962f1c1260_best.jpg
p138
aVhttps://img.shopstyle-cdn.com/pim/3a/f3/3af35bfe59f2da92d45f4bd5cfc54b3a_best.jpg
p139
aVhttps://img.shopstyle-cdn.com/pim/75/05/7505b997c39a9fa158a5a4007ecb9f90_best.jpg
p140
aVhttps://img.shopstyle-cdn.com/pim/1a/07/1a07a093756df8315cf70d457ba9ad34_best.jpg
p141
aVhttps://img.shopstyle-cdn.com/pim/5e/ec/5eeca3d6d96d5a274938a4ebd35dd108_best.jpg
p142
aVhttps://img.shopstyle-cdn.com/pim/fd/58/fd5810fedb94e6dedbfeb94d094e14e8_best.jpg
p143
aVhttps://img.shopstyle-cdn.com/pim/70/b0/70b029573a576caad267dd8d5c781b01_best.jpg
p144
aVhttps://img.shopstyle-cdn.com/pim/79/a3/79a3c4e455e3e85e928e4335469cd9f8_best.jpg
p145
aVhttps://img.shopstyle-cdn.com/pim/7b/7f/7b7fdd3ea0a1cebf3215486f66958388_best.jpg
p146
aVhttps://img.shopstyle-cdn.com/pim/09/de/09debf6351128502498ea61d98acf59a_best.jpg
p147
aVhttps://img.shopstyle-cdn.com/pim/b5/96/b596bab012925d92de614af5519925ee_best.jpg
p148
aVhttps://img.shopstyle-cdn.com/pim/90/9b/909b0cb06b7d55d5fe7065c51ac19faa_best.jpg
p149
aVhttps://img.shopstyle-cdn.com/pim/cb/f2/cbf2c540bc3189942efc53a5d6061125_best.jpg
p150
aVhttps://img.shopstyle-cdn.com/pim/ef/8c/ef8cfe48e525eef52a93b9608b136ae2_best.jpg
p151
aVhttps://img.shopstyle-cdn.com/pim/35/2b/352b0a668bdc531ac4adaab406e83e54_best.jpg
p152
aVhttps://img.shopstyle-cdn.com/pim/5d/b5/5db5e38a5d7a74025fdd3fa1c2f50f86_best.jpg
p153
aVhttps://img.shopstyle-cdn.com/pim/bf/44/bf44c5b3e6276675dee50f02956f3e86_best.jpg
p154
aVhttps://img.shopstyle-cdn.com/pim/f9/bc/f9bc79fea9ce9105ba84fb898c0f9f68_best.jpg
p155
aVhttps://img.shopstyle-cdn.com/pim/60/7e/607e52058f2d5f12646a09956c7714f2_best.jpg
p156
aVhttps://img.shopstyle-cdn.com/pim/64/4f/644fe22f1acf3b4335fac42f81a3274b_best.jpg
p157
aVhttps://img.shopstyle-cdn.com/pim/e2/cd/e2cdbde473712836e4e35f68247f56ee_best.jpg
p158
aVhttps://img.shopstyle-cdn.com/pim/39/56/3956162c416869960839bdb70a45c3c7_best.jpg
p159
aVhttps://img.shopstyle-cdn.com/pim/10/22/102253961eccbaa8e8a374de66879b8f_best.jpg
p160
aVhttps://img.shopstyle-cdn.com/pim/66/ee/66eed80ca941ced3b175dd7085c1a516_best.jpg
p161
aVhttps://img.shopstyle-cdn.com/pim/c0/0a/c00a39d5cc450b9ba5cab495e94c3a46_best.jpg
p162
aVhttps://img.shopstyle-cdn.com/pim/50/08/500863d9d99b0e7ceac46f8021e10d8d_best.jpg
p163
aVhttps://img.shopstyle-cdn.com/pim/31/50/3150ea2da9664b7f4c49ddc5e3b95381_best.jpg
p164
aVhttps://img.shopstyle-cdn.com/pim/67/0f/670f2da2620b476b04bf62fecd582423_best.jpg
p165
aVhttps://img.shopstyle-cdn.com/pim/6f/63/6f63675aa8b68648495363ee34901c28_best.jpg
p166
aVhttps://img.shopstyle-cdn.com/pim/1f/d0/1fd0fea05f52733616d2cfed73f6876b_best.jpg
p167
aVhttps://img.shopstyle-cdn.com/pim/a9/94/a994e3ca0bcf69afacff485fd2659502_best.jpg
p168
aVhttps://img.shopstyle-cdn.com/pim/46/9b/469b8899a79fd81e22ecaca34a1a2436_best.jpg
p169
aVhttps://img.shopstyle-cdn.com/pim/ce/e5/cee59944b49b330d9b98cdefd14f1a7c_best.jpg
p170
aVhttps://img.shopstyle-cdn.com/pim/7e/c3/7ec36d6e9eeedaa6b1fd1d2a1c5befca_best.jpg
p171
aVhttps://img.shopstyle-cdn.com/pim/f3/55/f35569b00229a960b8d2ecf2e7ee7bd8_best.jpg
p172
aVhttps://img.shopstyle-cdn.com/pim/79/9d/799d2349a05f9e53398419dc070afc68_best.jpg
p173
aVhttps://img.shopstyle-cdn.com/pim/55/62/556278966be6d4ccf2a4d8e4c9bef7df_best.jpg
p174
aVhttps://img.shopstyle-cdn.com/pim/45/97/45973fdf84986f939a8b85674b9d1be3_best.jpg
p175
aVhttps://img.shopstyle-cdn.com/pim/b6/33/b63358aba4f080e780850f8378fe1f86_best.jpg
p176
aVhttps://img.shopstyle-cdn.com/pim/08/fd/08fd9584663ba8863706dcb54ddd7e6b_best.jpg
p177
aVhttps://img.shopstyle-cdn.com/pim/2b/ee/2beef1881c765daf3ee0eabfa1b5e0ba_best.jpg
p178
aVhttps://img.shopstyle-cdn.com/pim/d6/99/d699d31478d410e2a9b7dbb28f385304_best.jpg
p179
aVhttps://img.shopstyle-cdn.com/pim/4a/96/4a96f002f13f0f00b0fa917ee05d04f4_best.jpg
p180
aVhttps://img.shopstyle-cdn.com/pim/e9/35/e935851d16f57677acc2d7defe3d7200_best.jpg
p181
aVhttps://img.shopstyle-cdn.com/pim/2b/5c/2b5c52d16f28b2b93d3803cc412aaf9d_best.jpg
p182
aVhttps://img.shopstyle-cdn.com/pim/ef/5b/ef5bb29c9f8b8e3cbdf91dfcbd532f0e_best.jpg
p183
aVhttps://img.shopstyle-cdn.com/pim/e7/8f/e78faf2a03a77522b7d593f731df337b_best.jpg
p184
aVhttps://img.shopstyle-cdn.com/pim/e1/6e/e16e9ec597c4740bdbef8693203be71a_best.jpg
p185
aVhttps://img.shopstyle-cdn.com/pim/26/6e/266e140526d2af42e8c6539590bf22ba_best.jpg
p186
aVhttps://img.shopstyle-cdn.com/pim/53/5a/535a626758f1b443af13c5c2b835ab7a_best.jpg
p187
aVhttps://img.shopstyle-cdn.com/pim/70/c8/70c81cb006e49a46434ed34bea937b33_best.jpg
p188
aVhttps://img.shopstyle-cdn.com/pim/16/f0/16f06071ab87a76e485e18067e84689a_best.jpg
p189
aVhttps://img.shopstyle-cdn.com/pim/82/ce/82ce629eb7b779f4f75049cbfee090b0_best.jpg
p190
aVhttps://img.shopstyle-cdn.com/pim/0b/8b/0b8baa7eecb246df39d5a92c9cee316d_best.jpg
p191
aVhttps://img.shopstyle-cdn.com/pim/9c/7e/9c7e76994fbd5894a0250c480a240cff_best.jpg
p192
aVhttps://img.shopstyle-cdn.com/pim/e0/85/e085a14ab16d9dde66ffd1d9d53f9924_best.jpg
p193
aVhttps://img.shopstyle-cdn.com/pim/b5/00/b500e92ed7f9892bb38b54427d2703a9_best.jpg
p194
aVhttps://img.shopstyle-cdn.com/pim/0c/32/0c32c16a033ea0517332a019ef3b7d63_best.jpg
p195
aVhttps://img.shopstyle-cdn.com/pim/0a/95/0a95ce5950de0b4cd83b2a467513529c_best.jpg
p196
aVhttps://img.shopstyle-cdn.com/pim/54/ce/54ce6b06f96d8dc9f6545223962571fd_best.jpg
p197
aVhttps://img.shopstyle-cdn.com/pim/13/6b/136b72c5ee8c30b69d863eb59e3d663a_best.jpg
p198
aVhttps://img.shopstyle-cdn.com/pim/ac/c1/acc1c2c5079d6ef1598bfd364b009a1d_best.jpg
p199
aVhttps://img.shopstyle-cdn.com/pim/61/db/61dbfae335163d5204e90b5d5168ae70_best.jpg
p200
aVhttps://img.shopstyle-cdn.com/pim/06/a4/06a4fe15ee92ba6a8ac1f237449f8e78_best.jpg
p201
aVhttps://img.shopstyle-cdn.com/pim/2e/8f/2e8f69294b33fa92bacf644924ff66ac_best.jpg
p202
aVhttps://img.shopstyle-cdn.com/pim/4a/7a/4a7a48d30949ce2c80379eb7ff538580_best.jpg
p203
aVhttps://img.shopstyle-cdn.com/pim/da/e4/dae470094a6f5c4611db3c061a6aa54a_best.jpg
p204
aVhttps://img.shopstyle-cdn.com/pim/bc/0f/bc0fe37d251ace336333dd4d6ec86777_best.jpg
p205
aVhttps://img.shopstyle-cdn.com/pim/f1/c1/f1c125d5c72a899c4c05a4e05345b5e1_best.jpg
p206
aVhttps://img.shopstyle-cdn.com/pim/a9/49/a94974a28e4543a4652a4a8c5598cfc1_best.jpg
p207
aVhttps://img.shopstyle-cdn.com/pim/be/59/be59b6b8a4d223ed6b7587f5b98f5662_best.jpg
p208
aVhttps://img.shopstyle-cdn.com/pim/d4/0f/d40fa8b88fe0442a1e4cb71361890a4e_best.jpg
p209
aVhttps://img.shopstyle-cdn.com/pim/45/e8/45e8f233be713b2ba47fc0dbfa1e45f5_best.jpg
p210
aVhttps://img.shopstyle-cdn.com/pim/7b/b4/7bb4f228ceebeb16cd92bd9db9799488_best.jpg
p211
aVhttps://img.shopstyle-cdn.com/pim/61/87/61877e34bc8328d881bb713fc7d29e98_best.jpg
p212
aVhttps://img.shopstyle-cdn.com/pim/26/5d/265d270cdbcb70a461fea30cbe38e7f3_best.jpg
p213
aVhttps://img.shopstyle-cdn.com/pim/ea/39/ea394f213dda435904bf33de8dbad747_best.jpg
p214
aVhttps://img.shopstyle-cdn.com/pim/ff/6c/ff6cf4461a5427ec220a0378983bbe32_best.jpg
p215
aVhttps://img.shopstyle-cdn.com/pim/76/d7/76d7d6fc55e802f95d50be29f43cc0f7_best.jpg
p216
aVhttps://img.shopstyle-cdn.com/pim/c2/cc/c2cc04a2657615bdee18c4a4c968a222_best.jpg
p217
aVhttps://img.shopstyle-cdn.com/pim/55/78/5578973a35d9c1f3f7ba6cabb179e54f_best.jpg
p218
aVhttps://img.shopstyle-cdn.com/pim/3f/49/3f4922269d105119d7c763c317c4fed0_best.jpg
p219
aVhttps://img.shopstyle-cdn.com/pim/24/0a/240a3c48f1f6adb3f0ad7c43d4c9aa39_best.jpg
p220
aVhttps://img.shopstyle-cdn.com/pim/ea/bf/eabf9023a21dbb0341eea57df0cb440d_best.jpg
p221
aVhttps://img.shopstyle-cdn.com/pim/f6/48/f648374f494f4fabec4fd0a236c3c864_best.jpg
p222
aVhttps://img.shopstyle-cdn.com/pim/ab/fe/abfeb4941000520c33454100fdd7b25a_best.jpg
p223
aVhttps://img.shopstyle-cdn.com/pim/2d/8b/2d8b1b7ef8d35d8e6ae9897d56e1b515_best.jpg
p224
aVhttps://img.shopstyle-cdn.com/pim/8f/da/8fdac433bf49f967fd3ff9747070139f_best.jpg
p225
aVhttps://img.shopstyle-cdn.com/pim/ca/f8/caf8befb4a65a9f3fe9eeb39c5eb3fa2_best.jpg
p226
aVhttps://img.shopstyle-cdn.com/pim/90/7a/907a8ab9b7ce0bd0d3f92275976dc863_best.jpg
p227
aVhttps://img.shopstyle-cdn.com/pim/0a/bb/0abb954204d408279846b8a3aa1c95df_best.jpg
p228
aVhttps://img.shopstyle-cdn.com/pim/84/b5/84b5cf1c927a3df8726dcba292b76d08_best.jpg
p229
aVhttps://img.shopstyle-cdn.com/pim/a4/1d/a41da8569d8f0bcb31d54ca98e1a119c_best.jpg
p230
aVhttps://img.shopstyle-cdn.com/pim/38/d6/38d62d8ab6f41b7f9171361b2320f9d0_best.jpg
p231
aVhttps://img.shopstyle-cdn.com/pim/53/fe/53feca70cb9aa5b0934d77227a513904_best.jpg
p232
aVhttps://img.shopstyle-cdn.com/pim/7c/a3/7ca33ebda5132991de28695095da3262_best.jpg
p233
aVhttps://img.shopstyle-cdn.com/pim/43/0c/430c69b520b1dc20abc89673d3f3fff0_best.jpg
p234
aVhttps://img.shopstyle-cdn.com/pim/c4/2b/c42b37867f1cc291ea2ba0a8e5c95a7a_best.jpg
p235
aVhttps://img.shopstyle-cdn.com/pim/01/fa/01fa34a7eab234a3aea28e0c95b342f7_best.jpg
p236
aVhttps://img.shopstyle-cdn.com/pim/ec/88/ec88962cc9dadec2a535b5f4b13dbfd5_best.jpg
p237
aVhttps://img.shopstyle-cdn.com/pim/cc/c1/ccc15ff78c116e22dbf8210d713d0c77_best.jpg
p238
aVhttps://img.shopstyle-cdn.com/pim/20/d8/20d8bd150e4f08a250298783b6d17799_best.jpg
p239
aVhttps://img.shopstyle-cdn.com/pim/ba/5b/ba5b3f6cac2d661c39d69a46d8737d1d_best.jpg
p240
aVhttps://img.shopstyle-cdn.com/pim/6e/47/6e47623fdf0b5c9e47aaad23a537d153_best.jpg
p241
aVhttps://img.shopstyle-cdn.com/pim/2e/eb/2eebdf498824dbb8322e19eb6e2ccbd9_best.jpg
p242
aVhttps://img.shopstyle-cdn.com/pim/8a/b2/8ab286df5161ed43254c5b5a34898f03_best.jpg
p243
aVhttps://img.shopstyle-cdn.com/pim/33/e1/33e18f21d26fc37f512fe7663a2887fe_best.jpg
p244
aVhttps://img.shopstyle-cdn.com/pim/3a/25/3a25511ff5e25fba04c86413ef19be0d_best.jpg
p245
aVhttps://img.shopstyle-cdn.com/pim/16/37/16378f5bbdb6c05c067ca2393ae5636f_best.jpg
p246
aVhttps://img.shopstyle-cdn.com/pim/4a/e4/4ae48ea7afd14cfea5e810dbb18a5c86_best.jpg
p247
aVhttps://img.shopstyle-cdn.com/pim/e0/76/e0765b437f05f9300ffb6b6151767a7d_best.jpg
p248
aVhttps://img.shopstyle-cdn.com/pim/17/3e/173ed9f5b52e513f5463713f6eee1209_best.jpg
p249
aVhttps://img.shopstyle-cdn.com/pim/4a/3d/4a3d3c820a6b4de446cc8516267704f6_best.jpg
p250
a.